target datalayout = "e-m:e-p270:32:32-p271:32:32-p272:64:64-i64:64-i128:128-f80:128-n8:16:32:64-S128"
target triple = "x86_64-pc-linux-gnu"

%struct.StepRequest = type { i32, i32, i8, i8, i8, i32, i32, ptr, ptr, i32, ptr, ptr, ptr, ptr }
%struct.BackendGlobalData = type <{ ptr, ptr, i8, i8, i8, i8, i8, i8, i8, i8, i8, [3 x i8], i32, ptr, ptr, ptr, ptr, ptr, ptr, ptr, ptr, ptr, ptr, ptr, ptr, ptr, i32, %struct.jvmtiCapabilities, i8, [3 x i8], %struct.jvmtiEventCallbacks, ptr, ptr, ptr, ptr, ptr, ptr, ptr, i32, [4 x i8], ptr, i64, i32, [4 x i8], ptr, i32, i32, i8, i8, [6 x i8] }>
%struct.jvmtiCapabilities = type { i64, i64 }
%struct.jvmtiEventCallbacks = type { ptr, ptr, ptr, ptr, ptr, ptr, ptr, ptr, ptr, ptr, ptr, ptr, ptr, ptr, ptr, ptr, ptr, ptr, ptr, ptr, ptr, ptr, ptr, ptr, ptr, ptr, ptr, ptr, ptr, ptr, ptr, ptr, ptr, ptr, ptr, ptr, ptr, ptr, ptr }

@.str.4 = private unnamed_addr constant [54 x i8] c"src/jdk.jdwp.agent/share/native/libjdwp/stepControl.c\00", align 1
@gdata = external global ptr, align 8
@.str.5 = private unnamed_addr constant [5 x i8] c"STEP\00", align 1
@stepLock = internal global ptr null, align 8
@.str.31 = private unnamed_addr constant [31 x i8] c"stepControl_endStep: thread=%p\00", align 1

; Function Attrs: nounwind uwtable
define hidden void @stepControl_unlock() #0 {
  %1 = load ptr, ptr @stepLock, align 8
  call void @debugMonitorExit(ptr noundef %1)
  ret void
}

; Function Attrs: nounwind uwtable
define internal void @clearStep(ptr noundef %0, ptr noundef %1) #0 {
  %3 = alloca ptr, align 8
  %4 = alloca ptr, align 8
  store ptr %0, ptr %3, align 8
  store ptr %1, ptr %4, align 8
  %5 = load ptr, ptr %4, align 8
  %6 = getelementptr inbounds %struct.StepRequest, ptr %5, i32 0, i32 2
  %7 = load i8, ptr %6, align 8
  %8 = icmp ne i8 %7, 0
  br i1 %8, label %9, label %49

9:                                                ; preds = %2
  %10 = load ptr, ptr %3, align 8
  call void @disableStepping(ptr noundef %10)
  %11 = load ptr, ptr %4, align 8
  %12 = getelementptr inbounds %struct.StepRequest, ptr %11, i32 0, i32 11
  %13 = load ptr, ptr %12, align 8
  %14 = icmp ne ptr %13, null
  br i1 %14, label %15, label %22

15:                                               ; preds = %9
  %16 = load ptr, ptr %4, align 8
  %17 = getelementptr inbounds %struct.StepRequest, ptr %16, i32 0, i32 11
  %18 = load ptr, ptr %17, align 8
  %19 = call i32 @eventHandler_free(ptr noundef %18)
  %20 = load ptr, ptr %4, align 8
  %21 = getelementptr inbounds %struct.StepRequest, ptr %20, i32 0, i32 11
  store ptr null, ptr %21, align 8
  br label %22

22:                                               ; preds = %15, %9
  %23 = load ptr, ptr %4, align 8
  %24 = getelementptr inbounds %struct.StepRequest, ptr %23, i32 0, i32 12
  %25 = load ptr, ptr %24, align 8
  %26 = icmp ne ptr %25, null
  br i1 %26, label %27, label %34

27:                                               ; preds = %22
  %28 = load ptr, ptr %4, align 8
  %29 = getelementptr inbounds %struct.StepRequest, ptr %28, i32 0, i32 12
  %30 = load ptr, ptr %29, align 8
  %31 = call i32 @eventHandler_free(ptr noundef %30)
  %32 = load ptr, ptr %4, align 8
  %33 = getelementptr inbounds %struct.StepRequest, ptr %32, i32 0, i32 12
  store ptr null, ptr %33, align 8
  br label %34

34:                                               ; preds = %27, %22
  %35 = load ptr, ptr %4, align 8
  %36 = getelementptr inbounds %struct.StepRequest, ptr %35, i32 0, i32 13
  %37 = load ptr, ptr %36, align 8
  %38 = icmp ne ptr %37, null
  br i1 %38, label %39, label %46

39:                                               ; preds = %34
  %40 = load ptr, ptr %4, align 8
  %41 = getelementptr inbounds %struct.StepRequest, ptr %40, i32 0, i32 13
  %42 = load ptr, ptr %41, align 8
  %43 = call i32 @eventHandler_free(ptr noundef %42)
  %44 = load ptr, ptr %4, align 8
  %45 = getelementptr inbounds %struct.StepRequest, ptr %44, i32 0, i32 13
  store ptr null, ptr %45, align 8
  br label %46

46:                                               ; preds = %39, %34
  %47 = load ptr, ptr %4, align 8
  %48 = getelementptr inbounds %struct.StepRequest, ptr %47, i32 0, i32 2
  store i8 0, ptr %48, align 8
  br label %49

49:                                               ; preds = %46, %2
  ret void
}

; Function Attrs: nounwind uwtable
define hidden void @stepControl_lock() #0 {
  %1 = load ptr, ptr @stepLock, align 8
  call void @debugMonitorEnter(ptr noundef %1)
  ret void
}

; Function Attrs: nounwind uwtable
define hidden i32 @stepControl_endStep(ptr noundef %0) #0 {
  %2 = alloca ptr, align 8
  %3 = alloca ptr, align 8
  %4 = alloca i32, align 4
  store ptr %0, ptr %2, align 8
  %5 = load ptr, ptr @gdata, align 8
  %6 = getelementptr inbounds %struct.BackendGlobalData, ptr %5, i32 0, i32 38
  %7 = load i32, ptr %6, align 8
  %8 = and i32 %7, 16
  %9 = icmp ne i32 %8, 0
  br i1 %9, label %10, label %12

10:                                               ; preds = %1
  call void @log_message_begin(ptr noundef @.str.5, ptr noundef @.str.4, i32 noundef 895)
  %11 = load ptr, ptr %2, align 8
  call void (ptr, ...) @log_message_end(ptr noundef @.str.31, ptr noundef %11)
  br label %13

12:                                               ; preds = %1
  br label %13

13:                                               ; preds = %12, %10
  call void @eventHandler_lock()
  call void @stepControl_lock()
  %14 = load ptr, ptr %2, align 8
  %15 = call ptr @threadControl_getStepRequest(ptr noundef %14)
  store ptr %15, ptr %3, align 8
  %16 = load ptr, ptr %3, align 8
  %17 = icmp ne ptr %16, null
  br i1 %17, label %18, label %21

18:                                               ; preds = %13
  %19 = load ptr, ptr %2, align 8
  %20 = load ptr, ptr %3, align 8
  call void @clearStep(ptr noundef %19, ptr noundef %20)
  store i32 0, ptr %4, align 4
  br label %22

21:                                               ; preds = %13
  store i32 0, ptr %4, align 4
  br label %22

22:                                               ; preds = %21, %18
  call void @stepControl_unlock()
  call void @eventHandler_unlock()
  %23 = load i32, ptr %4, align 4
  ret i32 %23
}