; Function Attrs: nounwind uwtable
define hidden noundef i32 @stepControl_endStep(ptr noundef %0) local_unnamed_addr #0 {
  %2 = load ptr, ptr @gdata, align 8
  %3 = getelementptr inbounds i8, ptr %2, i64 528
  %4 = load i32, ptr %3, align 8
  %5 = and i32 %4, 16
  %.not = icmp eq i32 %5, 0
  br i1 %.not, label %7, label %6

6:                                                ; preds = %1
  tail call void @log_message_begin(ptr noundef nonnull @.str.5, ptr noundef nonnull @.str.4, i32 noundef 895) #4
  tail call void (ptr, ...) @log_message_end(ptr noundef nonnull @.str.31, ptr noundef %0) #4
  br label %7

7:                                                ; preds = %1, %6
  tail call void @eventHandler_lock() #4
  %8 = load ptr, ptr @stepLock, align 8
  tail call void @debugMonitorEnter(ptr noundef %8) #4
  %9 = tail call ptr @threadControl_getStepRequest(ptr noundef %0) #4
  %.not5 = icmp eq ptr %9, null
  br i1 %.not5, label %clearStep.exit, label %10

10:                                               ; preds = %7
  %11 = getelementptr inbounds i8, ptr %9, i64 8
  %12 = load i8, ptr %11, align 8
  %.not.i = icmp eq i8 %12, 0
  br i1 %.not.i, label %clearStep.exit, label %13

13:                                               ; preds = %10
  tail call fastcc void @disableStepping(ptr noundef %0)
  %14 = getelementptr inbounds i8, ptr %9, i64 56
  %15 = load ptr, ptr %14, align 8
  %.not14.i = icmp eq ptr %15, null
  br i1 %.not14.i, label %18, label %16

16:                                               ; preds = %13
  %17 = tail call i32 @eventHandler_free(ptr noundef nonnull %15) #4
  store ptr null, ptr %14, align 8
  br label %18

18:                                               ; preds = %16, %13
  %19 = getelementptr inbounds i8, ptr %9, i64 64
  %20 = load ptr, ptr %19, align 8
  %.not15.i = icmp eq ptr %20, null
  br i1 %.not15.i, label %23, label %21

21:                                               ; preds = %18
  %22 = tail call i32 @eventHandler_free(ptr noundef nonnull %20) #4
  store ptr null, ptr %19, align 8
  br label %23

23:                                               ; preds = %21, %18
  %24 = getelementptr inbounds i8, ptr %9, i64 72
  %25 = load ptr, ptr %24, align 8
  %.not16.i = icmp eq ptr %25, null
  br i1 %.not16.i, label %28, label %26

26:                                               ; preds = %23
  %27 = tail call i32 @eventHandler_free(ptr noundef nonnull %25) #4
  store ptr null, ptr %24, align 8
  br label %28

28:                                               ; preds = %26, %23
  store i8 0, ptr %11, align 8
  br label %clearStep.exit

clearStep.exit:                                   ; preds = %28, %10, %7
  %29 = load ptr, ptr @stepLock, align 8
  tail call void @debugMonitorExit(ptr noundef %29) #4
  tail call void @eventHandler_unlock() #4
  ret i32 0
}